target datalayout = "e-m:e-p270:32:32-p271:32:32-p272:64:64-i64:64-i128:128-f80:128-n8:16:32:64-S128"
target triple = "x86_64-pc-linux-gnu"

%"struct.open_spiel::chess_common::Square" = type { i8, i8 }

; Function Attrs: mustprogress nounwind uwtable
define noundef i32 @_ZN10open_spiel5chess10EncodeMoveERKNS_12chess_common6SquareEiii(ptr noundef nonnull align 1 dereferenceable(2) %0, i32 noundef %1, i32 noundef %2, i32 noundef %3) #5 {
  %5 = alloca ptr, align 8
  %6 = alloca i32, align 4
  %7 = alloca i32, align 4
  %8 = alloca i32, align 4
  store ptr %0, ptr %5, align 8
  store i32 %1, ptr %6, align 4
  store i32 %2, ptr %7, align 4
  store i32 %3, ptr %8, align 4
  %9 = load ptr, ptr %5, align 8
  %10 = getelementptr inbounds nuw %"struct.open_spiel::chess_common::Square", ptr %9, i32 0, i32 0
  %11 = load i8, ptr %10, align 1
  %12 = sext i8 %11 to i32
  %13 = load i32, ptr %7, align 4
  %14 = mul nsw i32 %12, %13
  %15 = load ptr, ptr %5, align 8
  %16 = getelementptr inbounds nuw %"struct.open_spiel::chess_common::Square", ptr %15, i32 0, i32 1
  %17 = load i8, ptr %16, align 1
  %18 = sext i8 %17 to i32
  %19 = add nsw i32 %14, %18
  %20 = load i32, ptr %8, align 4
  %21 = mul nsw i32 %19, %20
  %22 = load i32, ptr %6, align 4
  %23 = add nsw i32 %21, %22
  ret i32 %23
}