; Function Attrs: mustprogress nofree norecurse nosync nounwind willreturn memory(argmem: read) uwtable
define noundef i32 @_ZN10open_spiel5chess10EncodeMoveERKNS_12chess_common6SquareEiii(ptr noundef nonnull readonly align 1 captures(none) dereferenceable(2) %0, i32 noundef %1, i32 noundef %2, i32 noundef %3) local_unnamed_addr #11 {
  %5 = load i8, ptr %0, align 1
  %6 = sext i8 %5 to i32
  %7 = mul nsw i32 %2, %6
  %8 = getelementptr inbounds nuw i8, ptr %0, i64 1
  %9 = load i8, ptr %8, align 1
  %10 = sext i8 %9 to i32
  %11 = add nsw i32 %7, %10
  %12 = mul nsw i32 %11, %3
  %13 = add nsw i32 %12, %1
  ret i32 %13
}